; ModuleID = 'source-C-CXX/2/1638.c'
source_filename = "source-C-CXX/2/1638.c"
target datalayout = "e-m:e-p270:32:32-p271:32:32-p272:64:64-i64:64-f80:128-n8:16:32:64-S128"
target triple = "x86_64-pc-linux-gnu"

@.str = private unnamed_addr constant [5 x i8] c"%d%d\00", align 1
@.str.1 = private unnamed_addr constant [3 x i8] c"%d\00", align 1
@.str.2 = private unnamed_addr constant [4 x i8] c"yes\00", align 1
@.str.3 = private unnamed_addr constant [3 x i8] c"no\00", align 1

; Function Attrs: nofree nounwind sspstrong uwtable
define dso_local i32 @main() local_unnamed_addr #0 {
  %1 = alloca i32, align 4
  %2 = alloca i32, align 4
  %3 = alloca [1000 x i32], align 16
  %4 = bitcast i32* %1 to i8*
  call void @llvm.lifetime.start.p0i8(i64 4, i8* nonnull %4) #3
  %5 = bitcast i32* %2 to i8*
  call void @llvm.lifetime.start.p0i8(i64 4, i8* nonnull %5) #3
  %6 = bitcast [1000 x i32]* %3 to i8*
  call void @llvm.lifetime.start.p0i8(i64 4000, i8* nonnull %6) #3
  %7 = call i32 (i8*, ...) @__isoc99_scanf(i8* getelementptr inbounds ([5 x i8], [5 x i8]* @.str, i64 0, i64 0), i32* nonnull %1, i32* nonnull %2)
  %8 = load i32, i32* %1, align 4, !tbaa !5
  %9 = icmp sgt i32 %8, 0
  br i1 %9, label %12, label %57

10:                                               ; preds = %12
  %11 = icmp sgt i32 %17, 0
  br i1 %11, label %31, label %57

12:                                               ; preds = %0, %12
  %13 = phi i64 [ %16, %12 ], [ 0, %0 ]
  %14 = getelementptr inbounds [1000 x i32], [1000 x i32]* %3, i64 0, i64 %13
  %15 = call i32 (i8*, ...) @__isoc99_scanf(i8* getelementptr inbounds ([3 x i8], [3 x i8]* @.str.1, i64 0, i64 0), i32* nonnull %14)
  %16 = add nuw nsw i64 %13, 1
  %17 = load i32, i32* %1, align 4, !tbaa !5
  %18 = sext i32 %17 to i64
  %19 = icmp slt i64 %16, %18
  br i1 %19, label %12, label %10, !llvm.loop !9

20:                                               ; preds = %52, %49
  %21 = phi i32 [ 1, %49 ], [ 0, %52 ]
  %22 = phi i32 [ %51, %49 ], [ %32, %52 ]
  %23 = sext i32 %22 to i64
  br label %24

24:                                               ; preds = %20, %31
  %25 = phi i64 [ %23, %20 ], [ %35, %31 ]
  %26 = phi i32 [ %22, %20 ], [ %32, %31 ]
  %27 = phi i32 [ %21, %20 ], [ 0, %31 ]
  %28 = icmp slt i64 %34, %25
  %29 = icmp eq i32 %27, 0
  %30 = and i1 %29, %28
  br i1 %30, label %31, label %56, !llvm.loop !11

31:                                               ; preds = %10, %24
  %32 = phi i32 [ %26, %24 ], [ %17, %10 ]
  %33 = phi i64 [ %34, %24 ], [ 0, %10 ]
  %34 = add nuw nsw i64 %33, 1
  %35 = sext i32 %32 to i64
  %36 = icmp slt i64 %34, %35
  br i1 %36, label %37, label %24

37:                                               ; preds = %31
  %38 = getelementptr inbounds [1000 x i32], [1000 x i32]* %3, i64 0, i64 %33
  %39 = trunc i64 %34 to i32
  %40 = load i32, i32* %38, align 4, !tbaa !5
  %41 = load i32, i32* %2, align 4, !tbaa !5
  br label %42

42:                                               ; preds = %37, %52
  %43 = phi i32 [ %53, %52 ], [ %39, %37 ]
  %44 = sext i32 %43 to i64
  %45 = getelementptr inbounds [1000 x i32], [1000 x i32]* %3, i64 0, i64 %44
  %46 = load i32, i32* %45, align 4, !tbaa !5
  %47 = add nsw i32 %46, %40
  %48 = icmp eq i32 %47, %41
  br i1 %48, label %49, label %52

49:                                               ; preds = %42
  %50 = call i32 (i8*, ...) @printf(i8* nonnull dereferenceable(1) getelementptr inbounds ([4 x i8], [4 x i8]* @.str.2, i64 0, i64 0))
  %51 = load i32, i32* %1, align 4, !tbaa !5
  br label %20

52:                                               ; preds = %42
  %53 = add nsw i32 %43, 1
  %54 = icmp sge i32 %53, %32
  %55 = or i1 %48, %54
  br i1 %55, label %20, label %42, !llvm.loop !12

56:                                               ; preds = %24
  br i1 %29, label %57, label %59

57:                                               ; preds = %0, %10, %56
  %58 = call i32 (i8*, ...) @printf(i8* nonnull dereferenceable(1) getelementptr inbounds ([3 x i8], [3 x i8]* @.str.3, i64 0, i64 0))
  br label %59

59:                                               ; preds = %57, %56
  call void @llvm.lifetime.end.p0i8(i64 4000, i8* nonnull %6) #3
  call void @llvm.lifetime.end.p0i8(i64 4, i8* nonnull %5) #3
  call void @llvm.lifetime.end.p0i8(i64 4, i8* nonnull %4) #3
  ret i32 0
}

; Function Attrs: argmemonly mustprogress nofree nosync nounwind willreturn
declare void @llvm.lifetime.start.p0i8(i64 immarg, i8* nocapture) #1

; Function Attrs: nofree nounwind
declare noundef i32 @__isoc99_scanf(i8* nocapture noundef readonly, ...) local_unnamed_addr #2

; Function Attrs: nofree nounwind
declare noundef i32 @printf(i8* nocapture noundef readonly, ...) local_unnamed_addr #2

; Function Attrs: argmemonly mustprogress nofree nosync nounwind willreturn
declare void @llvm.lifetime.end.p0i8(i64 immarg, i8* nocapture) #1


!llvm.module.flags = !{!0, !1, !2, !3}
!llvm.ident = !{!4}

!0 = !{i32 1, !"wchar_size", i32 4}
!1 = !{i32 7, !"PIC Level", i32 2}
!2 = !{i32 7, !"PIE Level", i32 2}
!3 = !{i32 7, !"uwtable", i32 1}
!4 = !{!"clang version 13.0.0"}
!5 = !{!6, !6, i64 0}
!6 = !{!"int", !7, i64 0}
!7 = !{!"omnipotent char", !8, i64 0}
!8 = !{!"Simple C/C++ TBAA"}
!9 = distinct !{!9, !10}
!10 = !{!"llvm.loop.mustprogress"}
!11 = distinct !{!11, !10}
!12 = distinct !{!12, !10}
